target datalayout = "e-m:e-p270:32:32-p271:32:32-p272:64:64-i64:64-i128:128-f80:128-n8:16:32:64-S128"
target triple = "x86_64-pc-linux-gnu"

; Function Attrs: nounwind sspstrong uwtable
define internal i64 @rb_zlib_crc_table(i64 noundef %0) #0 {
  %2 = alloca i64, align 8
  %3 = alloca ptr, align 8
  %4 = alloca i64, align 8
  %5 = alloca i32, align 4
  store i64 %0, ptr %2, align 8, !tbaa !6
  call void @llvm.lifetime.start.p0(i64 8, ptr %3) #23
  call void @llvm.lifetime.start.p0(i64 8, ptr %4) #23
  call void @llvm.lifetime.start.p0(i64 4, ptr %5) #23
  %6 = call ptr @get_crc_table()
  store ptr %6, ptr %3, align 8, !tbaa !15
  %7 = call i64 @rb_ary_new_capa(i64 noundef 256)
  store i64 %7, ptr %4, align 8, !tbaa !6
  store i32 0, ptr %5, align 4, !tbaa !10
  br label %8

8:                                                ; preds = %21, %1
  %9 = load i32, ptr %5, align 4, !tbaa !10
  %10 = icmp slt i32 %9, 256
  br i1 %10, label %11, label %24

11:                                               ; preds = %8
  %12 = load i64, ptr %4, align 8, !tbaa !6
  %13 = load ptr, ptr %3, align 8, !tbaa !15
  %14 = load i32, ptr %5, align 4, !tbaa !10
  %15 = sext i32 %14 to i64
  %16 = getelementptr inbounds i32, ptr %13, i64 %15
  %17 = load i32, ptr %16, align 4, !tbaa !10
  %18 = zext i32 %17 to i64
  %19 = call i64 @rb_uint2inum(i64 noundef %18)
  %20 = call i64 @rb_ary_push(i64 noundef %12, i64 noundef %19)
  br label %21

21:                                               ; preds = %11
  %22 = load i32, ptr %5, align 4, !tbaa !10
  %23 = add nsw i32 %22, 1
  store i32 %23, ptr %5, align 4, !tbaa !10
  br label %8, !llvm.loop !17

24:                                               ; preds = %8
  %25 = load i64, ptr %4, align 8, !tbaa !6
  call void @llvm.lifetime.end.p0(i64 4, ptr %5) #23
  call void @llvm.lifetime.end.p0(i64 8, ptr %4) #23
  call void @llvm.lifetime.end.p0(i64 8, ptr %3) #23
  ret i64 %25
}