; Function Attrs: nounwind sspstrong uwtable
define internal i64 @rb_zlib_crc_table(i64 %0) #0 {
  %2 = tail call ptr @get_crc_table() #18
  %3 = tail call i64 @rb_ary_new_capa(i64 noundef 256) #18
  br label %4

4:                                                ; preds = %1, %4
  %indvars.iv = phi i64 [ 0, %1 ], [ %indvars.iv.next, %4 ]
  %5 = getelementptr inbounds nuw i32, ptr %2, i64 %indvars.iv
  %6 = load i32, ptr %5, align 4, !tbaa !33
  %7 = zext i32 %6 to i64
  %8 = tail call i64 @rb_uint2inum(i64 noundef %7) #18
  %9 = tail call i64 @rb_ary_push(i64 noundef %3, i64 noundef %8) #18
  %indvars.iv.next = add nuw nsw i64 %indvars.iv, 1
  %exitcond.not = icmp eq i64 %indvars.iv.next, 256
  br i1 %exitcond.not, label %10, label %4, !llvm.loop !35

10:                                               ; preds = %4
  ret i64 %3
}